; Function Attrs: nounwind uwtable
define void @stbiw__putc(ptr noundef readonly captures(none) %0, i8 noundef zeroext %1) local_unnamed_addr #5 {
  %3 = alloca i8, align 1
  store i8 %1, ptr %3, align 1, !tbaa !11
  %4 = load ptr, ptr %0, align 8, !tbaa !7
  %5 = getelementptr inbounds nuw i8, ptr %0, i64 8
  %6 = load ptr, ptr %5, align 8, !tbaa !10
  call void %4(ptr noundef %6, ptr noundef nonnull %3, i32 noundef 1) #26
  ret void
}